; Function Attrs: mustprogress nounwind willreturn memory(argmem: readwrite, inaccessiblemem: readwrite) uwtable
define void @_ZN6LibRaw15dcraw_clear_memEP24libraw_processed_image_t(ptr noundef %0) local_unnamed_addr #8 align 2 {
  %.not = icmp eq ptr %0, null
  br i1 %.not, label %3, label %2

2:                                                ; preds = %1
  tail call void @free(ptr noundef nonnull %0) #13
  br label %3

3:                                                ; preds = %2, %1
  ret void
}